target datalayout = "e-m:e-p270:32:32-p271:32:32-p272:64:64-i64:64-i128:128-f80:128-n8:16:32:64-S128"
target triple = "x86_64-pc-linux-gnu"

@.str = private unnamed_addr constant [4 x i8] c"all\00", align 1
@.str.1 = private unnamed_addr constant [6 x i8] c"batch\00", align 1
@.str.2 = private unnamed_addr constant [6 x i8] c"first\00", align 1
@.str.3 = private unnamed_addr constant [5 x i8] c"last\00", align 1

; Function Attrs: nounwind uwtable
define dso_local zeroext i16 @x11_str2flags(ptr noundef %0) #0 {
  %2 = alloca ptr, align 8
  %3 = alloca i16, align 2
  store ptr %0, ptr %2, align 8
  call void @llvm.lifetime.start.p0(i64 2, ptr %3) #11
  store i16 0, ptr %3, align 2
  %4 = load ptr, ptr %2, align 8
  %5 = call i32 @xstrcasecmp(ptr noundef %4, ptr noundef @.str)
  %6 = icmp ne i32 %5, 0
  br i1 %6, label %12, label %7

7:                                                ; preds = %1
  %8 = load i16, ptr %3, align 2
  %9 = zext i16 %8 to i32
  %10 = or i32 %9, 1
  %11 = trunc i32 %10 to i16
  store i16 %11, ptr %3, align 2
  br label %12

12:                                               ; preds = %7, %1
  %13 = load ptr, ptr %2, align 8
  %14 = call i32 @xstrcasecmp(ptr noundef %13, ptr noundef @.str.1)
  %15 = icmp ne i32 %14, 0
  br i1 %15, label %21, label %16

16:                                               ; preds = %12
  %17 = load i16, ptr %3, align 2
  %18 = zext i16 %17 to i32
  %19 = or i32 %18, 2
  %20 = trunc i32 %19 to i16
  store i16 %20, ptr %3, align 2
  br label %21

21:                                               ; preds = %16, %12
  %22 = load ptr, ptr %2, align 8
  %23 = call i32 @xstrcasecmp(ptr noundef %22, ptr noundef @.str.2)
  %24 = icmp ne i32 %23, 0
  br i1 %24, label %30, label %25

25:                                               ; preds = %21
  %26 = load i16, ptr %3, align 2
  %27 = zext i16 %26 to i32
  %28 = or i32 %27, 4
  %29 = trunc i32 %28 to i16
  store i16 %29, ptr %3, align 2
  br label %30

30:                                               ; preds = %25, %21
  %31 = load ptr, ptr %2, align 8
  %32 = call i32 @xstrcasecmp(ptr noundef %31, ptr noundef @.str.3)
  %33 = icmp ne i32 %32, 0
  br i1 %33, label %39, label %34

34:                                               ; preds = %30
  %35 = load i16, ptr %3, align 2
  %36 = zext i16 %35 to i32
  %37 = or i32 %36, 8
  %38 = trunc i32 %37 to i16
  store i16 %38, ptr %3, align 2
  br label %39

39:                                               ; preds = %34, %30
  %40 = load i16, ptr %3, align 2
  call void @llvm.lifetime.end.p0(i64 2, ptr %3) #11
  ret i16 %40
}