; Function Attrs: nounwind uwtable
define dso_local zeroext range(i16 0, 16) i16 @x11_str2flags(ptr noundef %0) local_unnamed_addr #0 {
  %2 = tail call i32 @xstrcasecmp(ptr noundef %0, ptr noundef nonnull @.str) #15
  %.not = icmp eq i32 %2, 0
  %spec.select = zext i1 %.not to i16
  %3 = tail call i32 @xstrcasecmp(ptr noundef %0, ptr noundef nonnull @.str.1) #15
  %.not8 = icmp eq i32 %3, 0
  %4 = or disjoint i16 %spec.select, 2
  %.1 = select i1 %.not8, i16 %4, i16 %spec.select
  %5 = tail call i32 @xstrcasecmp(ptr noundef %0, ptr noundef nonnull @.str.2) #15
  %.not9 = icmp eq i32 %5, 0
  %6 = or disjoint i16 %.1, 4
  %.2 = select i1 %.not9, i16 %6, i16 %.1
  %7 = tail call i32 @xstrcasecmp(ptr noundef %0, ptr noundef nonnull @.str.3) #15
  %.not10 = icmp eq i32 %7, 0
  %8 = or disjoint i16 %.2, 8
  %.3 = select i1 %.not10, i16 %8, i16 %.2
  ret i16 %.3
}